target datalayout = "e-m:e-p270:32:32-p271:32:32-p272:64:64-i64:64-i128:128-f80:128-n8:16:32:64-S128"
target triple = "x86_64-pc-linux-gnu"

%struct.agxbuf = type { %union.anon.4 }
%union.anon.4 = type { %struct.anon.5 }
%struct.anon.5 = type { ptr, i64, i64, [7 x i8], i8 }
%struct.Exnode_s = type { i64, i64, i8, %union.anon.0, %union.Exdata_u }
%union.anon.0 = type { ptr }
%union.Exdata_u = type { %struct.anon.3 }
%struct.anon.3 = type { ptr, ptr, ptr, ptr }
%struct.anon = type { %union.EX_STYPE, ptr }
%union.EX_STYPE = type { ptr }

@.str.13 = private unnamed_addr constant [8 x i8] c"TV_flat\00", align 1
@.str.14 = private unnamed_addr constant [6 x i8] c"TV_ne\00", align 1
@.str.15 = private unnamed_addr constant [6 x i8] c"TV_en\00", align 1
@.str.16 = private unnamed_addr constant [7 x i8] c"TV_bfs\00", align 1
@.str.17 = private unnamed_addr constant [7 x i8] c"TV_dfs\00", align 1
@.str.18 = private unnamed_addr constant [7 x i8] c"TV_fwd\00", align 1
@.str.19 = private unnamed_addr constant [7 x i8] c"TV_rev\00", align 1
@.str.20 = private unnamed_addr constant [11 x i8] c"TV_postdfs\00", align 1
@.str.21 = private unnamed_addr constant [11 x i8] c"TV_postfwd\00", align 1
@.str.22 = private unnamed_addr constant [11 x i8] c"TV_postrev\00", align 1
@.str.23 = private unnamed_addr constant [14 x i8] c"TV_prepostdfs\00", align 1
@.str.24 = private unnamed_addr constant [14 x i8] c"TV_prepostfwd\00", align 1
@.str.25 = private unnamed_addr constant [14 x i8] c"TV_prepostrev\00", align 1
@.str.26 = private unnamed_addr constant [40 x i8] c"Unexpected value %lld for type tvtype_t\00", align 1
@.str.42 = private unnamed_addr constant [33 x i8] c"cannot generate name for NULL %s\00", align 1
@typenames = internal global [5 x ptr] [ptr @.str.47, ptr @.str.48, ptr @.str.49, ptr @.str.50, ptr @.str.51], align 16

; Function Attrs: inlinehint nounwind uwtable
define internal void @agxbfree(ptr noundef %0) #4 {
  %2 = alloca ptr, align 8
  store ptr %0, ptr %2, align 8, !tbaa !3
  %3 = load ptr, ptr %2, align 8, !tbaa !3
  %4 = getelementptr inbounds nuw %struct.agxbuf, ptr %3, i32 0, i32 0
  %5 = getelementptr inbounds nuw %struct.anon.5, ptr %4, i32 0, i32 4
  %6 = load i8, ptr %5, align 1, !tbaa !97
  %7 = zext i8 %6 to i32
  %8 = icmp eq i32 %7, 255
  br i1 %8, label %9, label %14

9:                                                ; preds = %1
  %10 = load ptr, ptr %2, align 8, !tbaa !3
  %11 = getelementptr inbounds nuw %struct.agxbuf, ptr %10, i32 0, i32 0
  %12 = getelementptr inbounds nuw %struct.anon.5, ptr %11, i32 0, i32 0
  %13 = load ptr, ptr %12, align 8, !tbaa !97
  call void @free(ptr noundef %13) #16
  br label %14

14:                                               ; preds = %9, %1
  ret void
}

; Function Attrs: nounwind uwtable
define internal ptr @typeName(i64 noundef %0) #0 {
  %2 = alloca i64, align 8
  store i64 %0, ptr %2, align 8, !tbaa !34
  %3 = load i64, ptr %2, align 8, !tbaa !34
  %4 = sub nsw i64 %3, 27
  %5 = getelementptr inbounds [5 x ptr], ptr @typenames, i64 0, i64 %4
  %6 = load ptr, ptr %5, align 8, !tbaa !7
  ret ptr %6
}

; Function Attrs: nounwind uwtable
define internal ptr @int2ptr(i64 noundef %0) #0 {
  %2 = alloca i64, align 8
  store i64 %0, ptr %2, align 8, !tbaa !99
  %3 = load i64, ptr %2, align 8, !tbaa !99
  %4 = inttoptr i64 %3 to ptr
  ret ptr %4
}

; Function Attrs: nounwind uwtable
define internal ptr @tvtypeToStr(i64 noundef %0) #0 {
  %2 = alloca i64, align 8
  %3 = alloca ptr, align 8
  store i64 %0, ptr %2, align 8, !tbaa !99
  call void @llvm.lifetime.start.p0(i64 8, ptr %3) #16
  store ptr null, ptr %3, align 8, !tbaa !7
  %4 = load i64, ptr %2, align 8, !tbaa !99
  switch i64 %4, label %18 [
    i64 0, label %5
    i64 1, label %6
    i64 2, label %7
    i64 3, label %8
    i64 4, label %9
    i64 5, label %10
    i64 6, label %11
    i64 7, label %12
    i64 8, label %13
    i64 9, label %14
    i64 10, label %15
    i64 11, label %16
    i64 12, label %17
  ]

5:                                                ; preds = %1
  store ptr @.str.13, ptr %3, align 8, !tbaa !7
  br label %20

6:                                                ; preds = %1
  store ptr @.str.14, ptr %3, align 8, !tbaa !7
  br label %20

7:                                                ; preds = %1
  store ptr @.str.15, ptr %3, align 8, !tbaa !7
  br label %20

8:                                                ; preds = %1
  store ptr @.str.16, ptr %3, align 8, !tbaa !7
  br label %20

9:                                                ; preds = %1
  store ptr @.str.17, ptr %3, align 8, !tbaa !7
  br label %20

10:                                               ; preds = %1
  store ptr @.str.18, ptr %3, align 8, !tbaa !7
  br label %20

11:                                               ; preds = %1
  store ptr @.str.19, ptr %3, align 8, !tbaa !7
  br label %20

12:                                               ; preds = %1
  store ptr @.str.20, ptr %3, align 8, !tbaa !7
  br label %20

13:                                               ; preds = %1
  store ptr @.str.21, ptr %3, align 8, !tbaa !7
  br label %20

14:                                               ; preds = %1
  store ptr @.str.22, ptr %3, align 8, !tbaa !7
  br label %20

15:                                               ; preds = %1
  store ptr @.str.23, ptr %3, align 8, !tbaa !7
  br label %20

16:                                               ; preds = %1
  store ptr @.str.24, ptr %3, align 8, !tbaa !7
  br label %20

17:                                               ; preds = %1
  store ptr @.str.25, ptr %3, align 8, !tbaa !7
  br label %20

18:                                               ; preds = %1
  %19 = load i64, ptr %2, align 8, !tbaa !99
  call void (ptr, ...) @exerror(ptr noundef @.str.26, i64 noundef %19)
  br label %20

20:                                               ; preds = %18, %17, %16, %15, %14, %13, %12, %11, %10, %9, %8, %7, %6, %5
  %21 = load ptr, ptr %3, align 8, !tbaa !7
  call void @llvm.lifetime.end.p0(i64 8, ptr %3) #16
  ret ptr %21
}

; Function Attrs: nounwind uwtable
define internal i32 @stringOf(ptr noundef %0, ptr noundef %1, i32 noundef %2) #0 {
  %4 = alloca i32, align 4
  %5 = alloca ptr, align 8
  %6 = alloca ptr, align 8
  %7 = alloca i32, align 4
  %8 = alloca ptr, align 8
  %9 = alloca i32, align 4
  %10 = alloca i32, align 4
  %11 = alloca %struct.agxbuf, align 8
  store ptr %0, ptr %5, align 8, !tbaa !74
  store ptr %1, ptr %6, align 8, !tbaa !75
  store i32 %2, ptr %7, align 4, !tbaa !26
  call void @llvm.lifetime.start.p0(i64 8, ptr %8) #16
  call void @llvm.lifetime.start.p0(i64 4, ptr %9) #16
  store i32 0, ptr %9, align 4, !tbaa !26
  %12 = load i32, ptr %7, align 4, !tbaa !26
  %13 = icmp ne i32 %12, 0
  br i1 %13, label %14, label %15

14:                                               ; preds = %3
  store i32 0, ptr %4, align 4
  store i32 1, ptr %10, align 4
  br label %57

15:                                               ; preds = %3
  %16 = load ptr, ptr %6, align 8, !tbaa !75
  %17 = getelementptr inbounds nuw %struct.Exnode_s, ptr %16, i32 0, i32 0
  %18 = load i64, ptr %17, align 8, !tbaa !95
  %19 = icmp eq i64 %18, 31
  br i1 %19, label %20, label %32

20:                                               ; preds = %15
  %21 = load ptr, ptr %6, align 8, !tbaa !75
  %22 = getelementptr inbounds nuw %struct.Exnode_s, ptr %21, i32 0, i32 4
  %23 = getelementptr inbounds nuw %struct.anon, ptr %22, i32 0, i32 0
  %24 = load i64, ptr %23, align 8, !tbaa !97
  %25 = call ptr @tvtypeToStr(i64 noundef %24)
  %26 = load ptr, ptr %6, align 8, !tbaa !75
  %27 = getelementptr inbounds nuw %struct.Exnode_s, ptr %26, i32 0, i32 4
  %28 = getelementptr inbounds nuw %struct.anon, ptr %27, i32 0, i32 0
  store ptr %25, ptr %28, align 8, !tbaa !97
  %29 = icmp ne ptr %25, null
  br i1 %29, label %31, label %30

30:                                               ; preds = %20
  store i32 -1, ptr %9, align 4, !tbaa !26
  br label %31

31:                                               ; preds = %30, %20
  br label %53

32:                                               ; preds = %15
  %33 = load ptr, ptr %6, align 8, !tbaa !75
  %34 = getelementptr inbounds nuw %struct.Exnode_s, ptr %33, i32 0, i32 4
  %35 = getelementptr inbounds nuw %struct.anon, ptr %34, i32 0, i32 0
  %36 = load i64, ptr %35, align 8, !tbaa !97
  %37 = call ptr @int2ptr(i64 noundef %36)
  store ptr %37, ptr %8, align 8, !tbaa !98
  %38 = load ptr, ptr %8, align 8, !tbaa !98
  %39 = icmp ne ptr %38, null
  br i1 %39, label %45, label %40

40:                                               ; preds = %32
  %41 = load ptr, ptr %6, align 8, !tbaa !75
  %42 = getelementptr inbounds nuw %struct.Exnode_s, ptr %41, i32 0, i32 0
  %43 = load i64, ptr %42, align 8, !tbaa !95
  %44 = call ptr @typeName(i64 noundef %43)
  call void (ptr, ...) @exerror(ptr noundef @.str.42, ptr noundef %44)
  store i32 -1, ptr %9, align 4, !tbaa !26
  br label %52

45:                                               ; preds = %32
  call void @llvm.lifetime.start.p0(i64 32, ptr %11) #16
  call void @llvm.memset.p0.i64(ptr align 8 %11, i8 0, i64 32, i1 false)
  %46 = load ptr, ptr %5, align 8, !tbaa !74
  %47 = load ptr, ptr %8, align 8, !tbaa !98
  %48 = call ptr @nameOf(ptr noundef %46, ptr noundef %47, ptr noundef %11)
  %49 = load ptr, ptr %6, align 8, !tbaa !75
  %50 = getelementptr inbounds nuw %struct.Exnode_s, ptr %49, i32 0, i32 4
  %51 = getelementptr inbounds nuw %struct.anon, ptr %50, i32 0, i32 0
  store ptr %48, ptr %51, align 8, !tbaa !97
  call void @agxbfree(ptr noundef %11)
  call void @llvm.lifetime.end.p0(i64 32, ptr %11) #16
  br label %52

52:                                               ; preds = %45, %40
  br label %53

53:                                               ; preds = %52, %31
  %54 = load ptr, ptr %6, align 8, !tbaa !75
  %55 = getelementptr inbounds nuw %struct.Exnode_s, ptr %54, i32 0, i32 0
  store i64 263, ptr %55, align 8, !tbaa !95
  %56 = load i32, ptr %9, align 4, !tbaa !26
  store i32 %56, ptr %4, align 4
  store i32 1, ptr %10, align 4
  br label %57

57:                                               ; preds = %53, %14
  call void @llvm.lifetime.end.p0(i64 4, ptr %9) #16
  call void @llvm.lifetime.end.p0(i64 8, ptr %8) #16
  %58 = load i32, ptr %4, align 4
  ret i32 %58
}