; Function Attrs: nounwind uwtable
define internal range(i32 -1, 1) i32 @stringOf(ptr noundef %0, ptr noundef captures(none) %1, i32 noundef %2) #0 {
  %4 = alloca %struct.agxbuf, align 8
  %.not = icmp eq i32 %2, 0
  br i1 %.not, label %5, label %25

5:                                                ; preds = %3
  %6 = load i64, ptr %1, align 8, !tbaa !86
  %7 = icmp eq i64 %6, 31
  %8 = getelementptr inbounds nuw i8, ptr %1, i64 32
  %9 = load i64, ptr %8, align 8, !tbaa !65
  br i1 %7, label %10, label %13

10:                                               ; preds = %5
  %11 = icmp ult i64 %9, 13
  br i1 %11, label %switch.lookup, label %12

12:                                               ; preds = %10
  tail call void (ptr, ...) @exerror(ptr noundef nonnull @.str.26, i64 noundef %9) #25
  br label %tvtypeToStr.exit

switch.lookup:                                    ; preds = %10
  %switch.gep = getelementptr inbounds nuw [13 x ptr], ptr @switch.table.tvtypeToStr, i64 0, i64 %9
  %switch.load = load ptr, ptr %switch.gep, align 8
  br label %tvtypeToStr.exit

tvtypeToStr.exit:                                 ; preds = %switch.lookup, %12
  %.not15 = phi i32 [ -1, %12 ], [ 0, %switch.lookup ]
  %.0.i = phi ptr [ null, %12 ], [ %switch.load, %switch.lookup ]
  store ptr %.0.i, ptr %8, align 8, !tbaa !65
  br label %24

13:                                               ; preds = %5
  %.not14 = icmp eq i64 %9, 0
  br i1 %.not14, label %14, label %18

14:                                               ; preds = %13
  %15 = add nsw i64 %6, -27
  %16 = getelementptr inbounds [5 x ptr], ptr @typenames, i64 0, i64 %15
  %17 = load ptr, ptr %16, align 8, !tbaa !88
  tail call void (ptr, ...) @exerror(ptr noundef nonnull @.str.42, ptr noundef %17) #25
  br label %24

18:                                               ; preds = %13
  %19 = inttoptr i64 %9 to ptr
  call void @llvm.lifetime.start.p0(i64 32, ptr nonnull %4) #25
  call void @llvm.memset.p0.i64(ptr noundef nonnull align 8 dereferenceable(32) %4, i8 0, i64 32, i1 false)
  %20 = call fastcc ptr @nameOf(ptr noundef %0, ptr noundef %19, ptr noundef %4)
  store ptr %20, ptr %8, align 8, !tbaa !65
  %21 = getelementptr inbounds nuw i8, ptr %4, i64 31
  %.val16 = load i8, ptr %21, align 1, !tbaa !65
  %22 = icmp eq i8 %.val16, -1
  br i1 %22, label %23, label %agxbfree.exit

23:                                               ; preds = %18
  %.val = load ptr, ptr %4, align 8
  call void @free(ptr noundef %.val) #25
  br label %agxbfree.exit

agxbfree.exit:                                    ; preds = %18, %23
  call void @llvm.lifetime.end.p0(i64 32, ptr nonnull %4) #25
  br label %24

24:                                               ; preds = %tvtypeToStr.exit, %14, %agxbfree.exit
  %.0 = phi i32 [ 0, %agxbfree.exit ], [ -1, %14 ], [ %.not15, %tvtypeToStr.exit ]
  store i64 263, ptr %1, align 8, !tbaa !86
  br label %25

25:                                               ; preds = %3, %24
  %.012 = phi i32 [ %.0, %24 ], [ 0, %3 ]
  ret i32 %.012
}